target datalayout = "e-m:e-p270:32:32-p271:32:32-p272:64:64-i64:64-i128:128-f80:128-n8:16:32:64-S128"
target triple = "x86_64-pc-linux-gnu"

@Curl_cmalloc = external global ptr, align 8
@Curl_cstrdup = external global ptr, align 8
@.str = private unnamed_addr constant [1 x i8] zeroinitializer, align 1
@Curl_cfree = external global ptr, align 8

; Function Attrs: nounwind uwtable
define internal void @ascii_to_unicode_le(ptr noundef %0, ptr noundef %1, i64 noundef %2) #0 {
  %4 = alloca ptr, align 8
  %5 = alloca ptr, align 8
  %6 = alloca i64, align 8
  %7 = alloca i64, align 8
  store ptr %0, ptr %4, align 8, !tbaa !4
  store ptr %1, ptr %5, align 8, !tbaa !4
  store i64 %2, ptr %6, align 8, !tbaa !11
  call void @llvm.lifetime.start.p0(i64 8, ptr %7) #7
  store i64 0, ptr %7, align 8, !tbaa !11
  br label %8

8:                                                ; preds = %26, %3
  %9 = load i64, ptr %7, align 8, !tbaa !11
  %10 = load i64, ptr %6, align 8, !tbaa !11
  %11 = icmp ult i64 %9, %10
  br i1 %11, label %12, label %29

12:                                               ; preds = %8
  %13 = load ptr, ptr %5, align 8, !tbaa !4
  %14 = load i64, ptr %7, align 8, !tbaa !11
  %15 = getelementptr inbounds nuw i8, ptr %13, i64 %14
  %16 = load i8, ptr %15, align 1, !tbaa !16
  %17 = load ptr, ptr %4, align 8, !tbaa !4
  %18 = load i64, ptr %7, align 8, !tbaa !11
  %19 = mul i64 2, %18
  %20 = getelementptr inbounds nuw i8, ptr %17, i64 %19
  store i8 %16, ptr %20, align 1, !tbaa !16
  %21 = load ptr, ptr %4, align 8, !tbaa !4
  %22 = load i64, ptr %7, align 8, !tbaa !11
  %23 = mul i64 2, %22
  %24 = add i64 %23, 1
  %25 = getelementptr inbounds nuw i8, ptr %21, i64 %24
  store i8 0, ptr %25, align 1, !tbaa !16
  br label %26

26:                                               ; preds = %12
  %27 = load i64, ptr %7, align 8, !tbaa !11
  %28 = add i64 %27, 1
  store i64 %28, ptr %7, align 8, !tbaa !11
  br label %8, !llvm.loop !17

29:                                               ; preds = %8
  call void @llvm.lifetime.end.p0(i64 8, ptr %7) #7
  ret void
}

; Function Attrs: nounwind uwtable
define dso_local i32 @Curl_ntlm_core_mk_nt_hash(ptr noundef %0, ptr noundef %1) #0 {
  %3 = alloca i32, align 4
  %4 = alloca ptr, align 8
  %5 = alloca ptr, align 8
  %6 = alloca i64, align 8
  %7 = alloca ptr, align 8
  %8 = alloca i32, align 4
  %9 = alloca i32, align 4
  store ptr %0, ptr %4, align 8, !tbaa !4
  store ptr %1, ptr %5, align 8, !tbaa !4
  call void @llvm.lifetime.start.p0(i64 8, ptr %6) #7
  %10 = load ptr, ptr %4, align 8, !tbaa !4
  %11 = call i64 @strlen(ptr noundef %10) #8
  store i64 %11, ptr %6, align 8, !tbaa !11
  call void @llvm.lifetime.start.p0(i64 8, ptr %7) #7
  call void @llvm.lifetime.start.p0(i64 4, ptr %8) #7
  %12 = load i64, ptr %6, align 8, !tbaa !11
  %13 = icmp ugt i64 %12, 9223372036854775807
  br i1 %13, label %14, label %15

14:                                               ; preds = %2
  store i32 27, ptr %3, align 4
  store i32 1, ptr %9, align 4
  br label %49

15:                                               ; preds = %2
  %16 = load i64, ptr %6, align 8, !tbaa !11
  %17 = icmp ne i64 %16, 0
  br i1 %17, label %18, label %23

18:                                               ; preds = %15
  %19 = load ptr, ptr @Curl_cmalloc, align 8, !tbaa !13
  %20 = load i64, ptr %6, align 8, !tbaa !11
  %21 = mul i64 %20, 2
  %22 = call ptr %19(i64 noundef %21)
  br label %26

23:                                               ; preds = %15
  %24 = load ptr, ptr @Curl_cstrdup, align 8, !tbaa !13
  %25 = call ptr %24(ptr noundef @.str)
  br label %26

26:                                               ; preds = %23, %18
  %27 = phi ptr [ %22, %18 ], [ %25, %23 ]
  store ptr %27, ptr %7, align 8, !tbaa !4
  %28 = load ptr, ptr %7, align 8, !tbaa !4
  %29 = icmp ne ptr %28, null
  br i1 %29, label %31, label %30

30:                                               ; preds = %26
  store i32 27, ptr %3, align 4
  store i32 1, ptr %9, align 4
  br label %49

31:                                               ; preds = %26
  %32 = load ptr, ptr %7, align 8, !tbaa !4
  %33 = load ptr, ptr %4, align 8, !tbaa !4
  %34 = load i64, ptr %6, align 8, !tbaa !11
  call void @ascii_to_unicode_le(ptr noundef %32, ptr noundef %33, i64 noundef %34)
  %35 = load ptr, ptr %5, align 8, !tbaa !4
  %36 = load ptr, ptr %7, align 8, !tbaa !4
  %37 = load i64, ptr %6, align 8, !tbaa !11
  %38 = mul i64 2, %37
  %39 = call i32 @Curl_md4it(ptr noundef %35, ptr noundef %36, i64 noundef %38)
  store i32 %39, ptr %8, align 4, !tbaa !14
  %40 = load i32, ptr %8, align 4, !tbaa !14
  %41 = icmp ne i32 %40, 0
  br i1 %41, label %45, label %42

42:                                               ; preds = %31
  %43 = load ptr, ptr %5, align 8, !tbaa !4
  %44 = getelementptr inbounds i8, ptr %43, i64 16
  call void @llvm.memset.p0.i64(ptr align 1 %44, i8 0, i64 5, i1 false)
  br label %45

45:                                               ; preds = %42, %31
  %46 = load ptr, ptr @Curl_cfree, align 8, !tbaa !13
  %47 = load ptr, ptr %7, align 8, !tbaa !4
  call void %46(ptr noundef %47)
  %48 = load i32, ptr %8, align 4, !tbaa !14
  store i32 %48, ptr %3, align 4
  store i32 1, ptr %9, align 4
  br label %49

49:                                               ; preds = %45, %30, %14
  call void @llvm.lifetime.end.p0(i64 4, ptr %8) #7
  call void @llvm.lifetime.end.p0(i64 8, ptr %7) #7
  call void @llvm.lifetime.end.p0(i64 8, ptr %6) #7
  %50 = load i32, ptr %3, align 4
  ret i32 %50
}